target datalayout = "e-m:e-p270:32:32-p271:32:32-p272:64:64-i64:64-i128:128-f80:128-n8:16:32:64-S128"
target triple = "x86_64-pc-linux-gnu"

@.str.1 = private unnamed_addr constant [5 x i8] c"<%s>\00", align 1
@getoutputbuffer.rv = internal global ptr null, align 8
@getoutputbuffer.len = internal global i64 0, align 8

; Function Attrs: nounwind uwtable
define internal ptr @agcanonhtmlstr(ptr noundef %0, ptr noundef %1) #0 {
  %3 = alloca ptr, align 8
  %4 = alloca ptr, align 8
  store ptr %0, ptr %3, align 8
  store ptr %1, ptr %4, align 8
  %5 = load ptr, ptr %4, align 8
  %6 = load ptr, ptr %3, align 8
  %7 = call i32 (ptr, ptr, ...) @sprintf(ptr noundef %5, ptr noundef @.str.1, ptr noundef %6) #5
  %8 = load ptr, ptr %4, align 8
  ret ptr %8
}

; Function Attrs: nounwind uwtable
define internal ptr @getoutputbuffer(ptr noundef %0) #0 {
  %2 = alloca ptr, align 8
  %3 = alloca ptr, align 8
  %4 = alloca i64, align 8
  %5 = alloca ptr, align 8
  store ptr %0, ptr %3, align 8
  %6 = load ptr, ptr %3, align 8
  %7 = call i64 @strlen(ptr noundef %6) #6
  %8 = mul i64 2, %7
  %9 = add i64 %8, 2
  %10 = icmp ugt i64 %9, 8192
  br i1 %10, label %11, label %16

11:                                               ; preds = %1
  %12 = load ptr, ptr %3, align 8
  %13 = call i64 @strlen(ptr noundef %12) #6
  %14 = mul i64 2, %13
  %15 = add i64 %14, 2
  br label %17

16:                                               ; preds = %1
  br label %17

17:                                               ; preds = %16, %11
  %18 = phi i64 [ %15, %11 ], [ 8192, %16 ]
  store i64 %18, ptr %4, align 8
  %19 = load i64, ptr %4, align 8
  %20 = load i64, ptr @getoutputbuffer.len, align 8
  %21 = icmp ugt i64 %19, %20
  br i1 %21, label %22, label %32

22:                                               ; preds = %17
  %23 = load ptr, ptr @getoutputbuffer.rv, align 8
  %24 = load i64, ptr %4, align 8
  %25 = call ptr @realloc(ptr noundef %23, i64 noundef %24) #7
  store ptr %25, ptr %5, align 8
  %26 = load ptr, ptr %5, align 8
  %27 = icmp eq ptr %26, null
  br i1 %27, label %28, label %29

28:                                               ; preds = %22
  store ptr null, ptr %2, align 8
  br label %34

29:                                               ; preds = %22
  %30 = load ptr, ptr %5, align 8
  store ptr %30, ptr @getoutputbuffer.rv, align 8
  %31 = load i64, ptr %4, align 8
  store i64 %31, ptr @getoutputbuffer.len, align 8
  br label %32

32:                                               ; preds = %29, %17
  %33 = load ptr, ptr @getoutputbuffer.rv, align 8
  store ptr %33, ptr %2, align 8
  br label %34

34:                                               ; preds = %32, %28
  %35 = load ptr, ptr %2, align 8
  ret ptr %35
}

; Function Attrs: nounwind uwtable
define ptr @agcanon(ptr noundef %0, i32 noundef %1) #0 {
  %3 = alloca ptr, align 8
  %4 = alloca ptr, align 8
  %5 = alloca i32, align 4
  %6 = alloca ptr, align 8
  store ptr %0, ptr %4, align 8
  store i32 %1, ptr %5, align 4
  %7 = load ptr, ptr %4, align 8
  %8 = call ptr @getoutputbuffer(ptr noundef %7)
  store ptr %8, ptr %6, align 8
  %9 = load ptr, ptr %6, align 8
  %10 = icmp eq ptr %9, null
  br i1 %10, label %11, label %12

11:                                               ; preds = %2
  store ptr null, ptr %3, align 8
  br label %23

12:                                               ; preds = %2
  %13 = load i32, ptr %5, align 4
  %14 = icmp ne i32 %13, 0
  br i1 %14, label %15, label %19

15:                                               ; preds = %12
  %16 = load ptr, ptr %4, align 8
  %17 = load ptr, ptr %6, align 8
  %18 = call ptr @agcanonhtmlstr(ptr noundef %16, ptr noundef %17)
  store ptr %18, ptr %3, align 8
  br label %23

19:                                               ; preds = %12
  %20 = load ptr, ptr %4, align 8
  %21 = load ptr, ptr %6, align 8
  %22 = call ptr @_agstrcanon(ptr noundef %20, ptr noundef %21)
  store ptr %22, ptr %3, align 8
  br label %23

23:                                               ; preds = %19, %15, %11
  %24 = load ptr, ptr %3, align 8
  ret ptr %24
}