; Function Attrs: nounwind uwtable
define ptr @agcanon(ptr noundef %0, i32 noundef %1) local_unnamed_addr #0 {
  %3 = tail call i64 @strlen(ptr noundef nonnull readonly dereferenceable(1) %0) #10
  %4 = shl i64 %3, 1
  %5 = add i64 %4, 2
  %spec.select.i = tail call i64 @llvm.umax.i64(i64 %5, i64 8192)
  %6 = load i64, ptr @getoutputbuffer.len, align 8
  %7 = icmp ugt i64 %spec.select.i, %6
  %.pre.i = load ptr, ptr @getoutputbuffer.rv, align 8
  br i1 %7, label %8, label %getoutputbuffer.exit

8:                                                ; preds = %2
  %9 = tail call ptr @realloc(ptr noundef %.pre.i, i64 noundef %spec.select.i) #11
  %10 = icmp eq ptr %9, null
  br i1 %10, label %getoutputbuffer.exit.thread, label %getoutputbuffer.exit.thread9

getoutputbuffer.exit.thread9:                     ; preds = %8
  store ptr %9, ptr @getoutputbuffer.rv, align 8
  store i64 %spec.select.i, ptr @getoutputbuffer.len, align 8
  br label %12

getoutputbuffer.exit:                             ; preds = %2
  %11 = icmp eq ptr %.pre.i, null
  br i1 %11, label %getoutputbuffer.exit.thread, label %12

12:                                               ; preds = %getoutputbuffer.exit.thread9, %getoutputbuffer.exit
  %.0.i11 = phi ptr [ %9, %getoutputbuffer.exit.thread9 ], [ %.pre.i, %getoutputbuffer.exit ]
  %.not = icmp eq i32 %1, 0
  br i1 %.not, label %15, label %13

13:                                               ; preds = %12
  %14 = tail call i32 (ptr, ptr, ...) @sprintf(ptr noundef nonnull dereferenceable(1) %.0.i11, ptr noundef nonnull dereferenceable(1) @.str.1, ptr noundef nonnull %0) #9
  br label %getoutputbuffer.exit.thread

15:                                               ; preds = %12
  %16 = tail call fastcc ptr @_agstrcanon(ptr noundef nonnull %0, ptr noundef nonnull %.0.i11)
  br label %getoutputbuffer.exit.thread

getoutputbuffer.exit.thread:                      ; preds = %8, %getoutputbuffer.exit, %15, %13
  %.0 = phi ptr [ %.0.i11, %13 ], [ %16, %15 ], [ null, %getoutputbuffer.exit ], [ null, %8 ]
  ret ptr %.0
}